; Function Attrs: mustprogress nounwind uwtable
define internal fastcc void @_ZN6hermes6ESTree24RecursiveVisitorDispatchINS_12_GLOBAL__N_119DependencyExtractorELb1EE13visitChildrenERS3_PNS0_20TSIndexSignatureNodeE(ptr noundef nonnull align 8 dereferenceable(145) %v, ptr noundef readonly %node) unnamed_addr #0 align 2 {
entry:
  %_parameters = getelementptr inbounds i8, ptr %node, i64 48
  %Next.i.i.i.i = getelementptr inbounds i8, ptr %node, i64 56
  %__begin4.i.sroa.0.07 = load ptr, ptr %Next.i.i.i.i, align 8
  %cmp.i.not8 = icmp eq ptr %__begin4.i.sroa.0.07, %_parameters
  br i1 %cmp.i.not8, label %_ZN6hermes6ESTree24RecursiveVisitorDispatchINS_12_GLOBAL__N_119DependencyExtractorELb1EE5visitERS3_RN4llvh12simple_ilistINS0_4NodeEJEEEPS8_.exit, label %for.body.i

for.body.i:                                       ; preds = %entry, %for.body.i
  %__begin4.i.sroa.0.09 = phi ptr [ %__begin4.i.sroa.0.0, %for.body.i ], [ %__begin4.i.sroa.0.07, %entry ]
  tail call fastcc void @_ZN6hermes6ESTree24RecursiveVisitorDispatchINS_12_GLOBAL__N_119DependencyExtractorELb1EE5visitERS3_PNS0_4NodeES7_(ptr noundef nonnull align 8 dereferenceable(145) %v, ptr noundef nonnull %__begin4.i.sroa.0.09)
  %Next.i.i.i = getelementptr inbounds i8, ptr %__begin4.i.sroa.0.09, i64 8
  %__begin4.i.sroa.0.0 = load ptr, ptr %Next.i.i.i, align 8
  %cmp.i.not = icmp eq ptr %__begin4.i.sroa.0.0, %_parameters
  br i1 %cmp.i.not, label %_ZN6hermes6ESTree24RecursiveVisitorDispatchINS_12_GLOBAL__N_119DependencyExtractorELb1EE5visitERS3_RN4llvh12simple_ilistINS0_4NodeEJEEEPS8_.exit, label %for.body.i

_ZN6hermes6ESTree24RecursiveVisitorDispatchINS_12_GLOBAL__N_119DependencyExtractorELb1EE5visitERS3_RN4llvh12simple_ilistINS0_4NodeEJEEEPS8_.exit: ; preds = %for.body.i, %entry
  %_typeAnnotation = getelementptr inbounds i8, ptr %node, i64 64
  %0 = load ptr, ptr %_typeAnnotation, align 8
  tail call fastcc void @_ZN6hermes6ESTree24RecursiveVisitorDispatchINS_12_GLOBAL__N_119DependencyExtractorELb1EE5visitERS3_PNS0_4NodeES7_(ptr noundef nonnull align 8 dereferenceable(145) %v, ptr noundef %0)
  ret void
}